(dp0
S'sqft_living_model'
p1
(dp2
S'prediction 2'
p3
F1261170.404099968
sS'prediction 1'
p4
F629584.8197281545
sS'features'
p5
(lp6
S'sqft_living'
p7
asS'rmse'
p8
F255191.02870527358
sS'max_error'
p9
F4143550.8825285938
sg7
F281.9578501659882
sS'intercept'
p10
F-47114.02067021723
ssS'most expensive zip'
p11
(dp12
S'zip code'
p13
S'98039'
p14
sS'mean'
p15
F2160606.5999999996
ssS'advanced_model'
p16
(dp17
g5
(lp18
S'bedrooms'
p19
aS'bathrooms'
p20
ag7
aS'sqft_lot'
p21
aS'floors'
p22
aS'zipcode'
p23
aS'condition'
p24
aS'grade'
p25
aS'waterfront'
p26
aS'view'
p27
aS'sqft_above'
p28
aS'sqft_basement'
p29
aS'yr_built'
p30
aS'yr_renovated'
p31
aS'lat'
p32
aS'long'
p33
aS'sqft_living15'
p34
aS'sqft_lot15'
p35
asg8
F156831.1168021901
ssS'bill_gates'
p36
(dp37
S'house'
p38
(dp39
g20
(lp40
I25
asg34
(lp41
I5000
asg28
(lp42
I37500
asg25
(lp43
I10
asg31
(lp44
I2010
asg19
(lp45
I8
asg23
(lp46
S'98039'
p47
asg33
(lp48
F-122.242054
asg35
(lp49
I40000
asg7
(lp50
I50000
asg22
(lp51
I4
asg24
(lp52
I10
asg26
(lp53
I1
asg29
(lp54
I12500
asg30
(lp55
I1994
asg32
(lp56
F47.627606
asg21
(lp57
I225000
asg27
(lp58
I4
asssS'house_1_id'
p59
S'5309101200'
p60
sS'sqft_living 2000 - 4000'
p61
F0.42187572294452413
sS'my_features_model'
p62
(dp63
S'prediction 2'
p64
F1446472.4690774973
sS'prediction bill gates'
p65
F13749825.525719076
sg5
(lp66
g19
ag20
ag7
ag21
ag22
ag23
asS'max error'
p67
F3486584.509381705
sg8
F179542.4333126903
ssS'house id 2'
p68
S'1925069082'
p69
s.